target datalayout = "e-m:e-p270:32:32-p271:32:32-p272:64:64-i64:64-i128:128-f80:128-n8:16:32:64-S128"
target triple = "x86_64-pc-linux-gnu"

%"class.pxrInternal_v0_24__pxrReserved__::TfEnum" = type <{ ptr, i32, [4 x i8] }>

@.str.26 = private unnamed_addr constant [30 x i8] c"TsTest_SplineData::InterpHeld\00", align 1
@.str.27 = private unnamed_addr constant [32 x i8] c"TsTest_SplineData::InterpLinear\00", align 1
@.str.28 = private unnamed_addr constant [31 x i8] c"TsTest_SplineData::InterpCurve\00", align 1
@.str.29 = private unnamed_addr constant [30 x i8] c"TsTest_SplineData::ExtrapHeld\00", align 1
@.str.30 = private unnamed_addr constant [32 x i8] c"TsTest_SplineData::ExtrapLinear\00", align 1
@.str.31 = private unnamed_addr constant [32 x i8] c"TsTest_SplineData::ExtrapSloped\00", align 1
@.str.32 = private unnamed_addr constant [30 x i8] c"TsTest_SplineData::ExtrapLoop\00", align 1
@.str.33 = private unnamed_addr constant [28 x i8] c"TsTest_SplineData::LoopNone\00", align 1
@.str.34 = private unnamed_addr constant [32 x i8] c"TsTest_SplineData::LoopContinue\00", align 1
@.str.35 = private unnamed_addr constant [30 x i8] c"TsTest_SplineData::LoopRepeat\00", align 1
@.str.36 = private unnamed_addr constant [29 x i8] c"TsTest_SplineData::LoopReset\00", align 1
@.str.37 = private unnamed_addr constant [33 x i8] c"TsTest_SplineData::LoopOscillate\00", align 1
@.str.38 = private unnamed_addr constant [39 x i8] c"TsTest_SplineData::FeatureHeldSegments\00", align 1
@.str.39 = private unnamed_addr constant [41 x i8] c"TsTest_SplineData::FeatureLinearSegments\00", align 1
@.str.40 = private unnamed_addr constant [41 x i8] c"TsTest_SplineData::FeatureBezierSegments\00", align 1
@.str.41 = private unnamed_addr constant [42 x i8] c"TsTest_SplineData::FeatureHermiteSegments\00", align 1
@.str.42 = private unnamed_addr constant [42 x i8] c"TsTest_SplineData::FeatureDualValuedKnots\00", align 1
@.str.43 = private unnamed_addr constant [37 x i8] c"TsTest_SplineData::FeatureInnerLoops\00", align 1
@.str.44 = private unnamed_addr constant [45 x i8] c"TsTest_SplineData::FeatureExtrapolatingLoops\00", align 1
@_ZTIN32pxrInternal_v0_24__pxrReserved__17TsTest_SplineData12ExtrapMethodE = linkonce_odr constant { ptr, ptr } { ptr getelementptr inbounds (ptr, ptr @_ZTVN10__cxxabiv116__enum_type_infoE, i64 2), ptr @_ZTSN32pxrInternal_v0_24__pxrReserved__17TsTest_SplineData12ExtrapMethodE }, comdat, align 8
@_ZTIN32pxrInternal_v0_24__pxrReserved__17TsTest_SplineData8LoopModeE = linkonce_odr constant { ptr, ptr } { ptr getelementptr inbounds (ptr, ptr @_ZTVN10__cxxabiv116__enum_type_infoE, i64 2), ptr @_ZTSN32pxrInternal_v0_24__pxrReserved__17TsTest_SplineData8LoopModeE }, comdat, align 8
@_ZTIN32pxrInternal_v0_24__pxrReserved__17TsTest_SplineData7FeatureE = linkonce_odr constant { ptr, ptr } { ptr getelementptr inbounds (ptr, ptr @_ZTVN10__cxxabiv116__enum_type_infoE, i64 2), ptr @_ZTSN32pxrInternal_v0_24__pxrReserved__17TsTest_SplineData7FeatureE }, comdat, align 8
@_ZTIN32pxrInternal_v0_24__pxrReserved__17TsTest_SplineData12InterpMethodE = linkonce_odr constant { ptr, ptr } { ptr getelementptr inbounds (ptr, ptr @_ZTVN10__cxxabiv116__enum_type_infoE, i64 2), ptr @_ZTSN32pxrInternal_v0_24__pxrReserved__17TsTest_SplineData12InterpMethodE }, comdat, align 8

; Function Attrs: mustprogress nounwind uwtable
define linkonce_odr void @_ZN32pxrInternal_v0_24__pxrReserved__6TfEnumC2INS_17TsTest_SplineData7FeatureEEET_PNSt9enable_ifIXsr3std7is_enumIS4_EE5valueEvE4typeE(ptr noundef nonnull align 8 dereferenceable(12) %0, i32 noundef %1, ptr noundef %2) unnamed_addr #2 comdat align 2 {
  %4 = alloca ptr, align 8
  %5 = alloca i32, align 4
  %6 = alloca ptr, align 8
  store ptr %0, ptr %4, align 8
  store i32 %1, ptr %5, align 4
  store ptr %2, ptr %6, align 8
  %7 = load ptr, ptr %4, align 8
  %8 = getelementptr inbounds nuw %"class.pxrInternal_v0_24__pxrReserved__::TfEnum", ptr %7, i32 0, i32 0
  store ptr @_ZTIN32pxrInternal_v0_24__pxrReserved__17TsTest_SplineData7FeatureE, ptr %8, align 8
  %9 = getelementptr inbounds nuw %"class.pxrInternal_v0_24__pxrReserved__::TfEnum", ptr %7, i32 0, i32 1
  %10 = load i32, ptr %5, align 4
  store i32 %10, ptr %9, align 8
  ret void
}

; Function Attrs: mustprogress nounwind uwtable
define linkonce_odr void @_ZN32pxrInternal_v0_24__pxrReserved__6TfEnumC2INS_17TsTest_SplineData8LoopModeEEET_PNSt9enable_ifIXsr3std7is_enumIS4_EE5valueEvE4typeE(ptr noundef nonnull align 8 dereferenceable(12) %0, i32 noundef %1, ptr noundef %2) unnamed_addr #2 comdat align 2 {
  %4 = alloca ptr, align 8
  %5 = alloca i32, align 4
  %6 = alloca ptr, align 8
  store ptr %0, ptr %4, align 8
  store i32 %1, ptr %5, align 4
  store ptr %2, ptr %6, align 8
  %7 = load ptr, ptr %4, align 8
  %8 = getelementptr inbounds nuw %"class.pxrInternal_v0_24__pxrReserved__::TfEnum", ptr %7, i32 0, i32 0
  store ptr @_ZTIN32pxrInternal_v0_24__pxrReserved__17TsTest_SplineData8LoopModeE, ptr %8, align 8
  %9 = getelementptr inbounds nuw %"class.pxrInternal_v0_24__pxrReserved__::TfEnum", ptr %7, i32 0, i32 1
  %10 = load i32, ptr %5, align 4
  store i32 %10, ptr %9, align 8
  ret void
}

; Function Attrs: mustprogress nounwind uwtable
define linkonce_odr void @_ZN32pxrInternal_v0_24__pxrReserved__6TfEnumC2INS_17TsTest_SplineData12ExtrapMethodEEET_PNSt9enable_ifIXsr3std7is_enumIS4_EE5valueEvE4typeE(ptr noundef nonnull align 8 dereferenceable(12) %0, i32 noundef %1, ptr noundef %2) unnamed_addr #2 comdat align 2 {
  %4 = alloca ptr, align 8
  %5 = alloca i32, align 4
  %6 = alloca ptr, align 8
  store ptr %0, ptr %4, align 8
  store i32 %1, ptr %5, align 4
  store ptr %2, ptr %6, align 8
  %7 = load ptr, ptr %4, align 8
  %8 = getelementptr inbounds nuw %"class.pxrInternal_v0_24__pxrReserved__::TfEnum", ptr %7, i32 0, i32 0
  store ptr @_ZTIN32pxrInternal_v0_24__pxrReserved__17TsTest_SplineData12ExtrapMethodE, ptr %8, align 8
  %9 = getelementptr inbounds nuw %"class.pxrInternal_v0_24__pxrReserved__::TfEnum", ptr %7, i32 0, i32 1
  %10 = load i32, ptr %5, align 4
  store i32 %10, ptr %9, align 8
  ret void
}

; Function Attrs: mustprogress nounwind uwtable
define linkonce_odr noundef ptr @_ZN32pxrInternal_v0_24__pxrReserved__6TfEnum10_NameIdentEPKc(ptr noundef %0) #2 comdat align 2 {
  %2 = alloca ptr, align 8
  store ptr %0, ptr %2, align 8
  %3 = load ptr, ptr %2, align 8
  ret ptr %3
}

; Function Attrs: mustprogress nounwind uwtable
define linkonce_odr void @_ZN32pxrInternal_v0_24__pxrReserved__6TfEnumC2INS_17TsTest_SplineData12InterpMethodEEET_PNSt9enable_ifIXsr3std7is_enumIS4_EE5valueEvE4typeE(ptr noundef nonnull align 8 dereferenceable(12) %0, i32 noundef %1, ptr noundef %2) unnamed_addr #2 comdat align 2 {
  %4 = alloca ptr, align 8
  %5 = alloca i32, align 4
  %6 = alloca ptr, align 8
  store ptr %0, ptr %4, align 8
  store i32 %1, ptr %5, align 4
  store ptr %2, ptr %6, align 8
  %7 = load ptr, ptr %4, align 8
  %8 = getelementptr inbounds nuw %"class.pxrInternal_v0_24__pxrReserved__::TfEnum", ptr %7, i32 0, i32 0
  store ptr @_ZTIN32pxrInternal_v0_24__pxrReserved__17TsTest_SplineData12InterpMethodE, ptr %8, align 8
  %9 = getelementptr inbounds nuw %"class.pxrInternal_v0_24__pxrReserved__::TfEnum", ptr %7, i32 0, i32 1
  %10 = load i32, ptr %5, align 4
  store i32 %10, ptr %9, align 8
  ret void
}

; Function Attrs: mustprogress uwtable
define internal void @_ZN32pxrInternal_v0_24__pxrReserved__L22_Tf_RegistryFunction22EPNS_6TfEnumEPv(ptr noundef %0, ptr noundef %1) #0 {
  %3 = alloca ptr, align 8
  %4 = alloca ptr, align 8
  %5 = alloca %"class.pxrInternal_v0_24__pxrReserved__::TfEnum", align 8
  %6 = alloca %"class.pxrInternal_v0_24__pxrReserved__::TfEnum", align 8
  %7 = alloca %"class.pxrInternal_v0_24__pxrReserved__::TfEnum", align 8
  %8 = alloca %"class.pxrInternal_v0_24__pxrReserved__::TfEnum", align 8
  %9 = alloca %"class.pxrInternal_v0_24__pxrReserved__::TfEnum", align 8
  %10 = alloca %"class.pxrInternal_v0_24__pxrReserved__::TfEnum", align 8
  %11 = alloca %"class.pxrInternal_v0_24__pxrReserved__::TfEnum", align 8
  %12 = alloca %"class.pxrInternal_v0_24__pxrReserved__::TfEnum", align 8
  %13 = alloca %"class.pxrInternal_v0_24__pxrReserved__::TfEnum", align 8
  %14 = alloca %"class.pxrInternal_v0_24__pxrReserved__::TfEnum", align 8
  %15 = alloca %"class.pxrInternal_v0_24__pxrReserved__::TfEnum", align 8
  %16 = alloca %"class.pxrInternal_v0_24__pxrReserved__::TfEnum", align 8
  %17 = alloca %"class.pxrInternal_v0_24__pxrReserved__::TfEnum", align 8
  %18 = alloca %"class.pxrInternal_v0_24__pxrReserved__::TfEnum", align 8
  %19 = alloca %"class.pxrInternal_v0_24__pxrReserved__::TfEnum", align 8
  %20 = alloca %"class.pxrInternal_v0_24__pxrReserved__::TfEnum", align 8
  %21 = alloca %"class.pxrInternal_v0_24__pxrReserved__::TfEnum", align 8
  %22 = alloca %"class.pxrInternal_v0_24__pxrReserved__::TfEnum", align 8
  %23 = alloca %"class.pxrInternal_v0_24__pxrReserved__::TfEnum", align 8
  store ptr %0, ptr %3, align 8
  store ptr %1, ptr %4, align 8
  call void @_ZN32pxrInternal_v0_24__pxrReserved__6TfEnumC2INS_17TsTest_SplineData12InterpMethodEEET_PNSt9enable_ifIXsr3std7is_enumIS4_EE5valueEvE4typeE(ptr noundef nonnull align 8 dereferenceable(12) %5, i32 noundef 0, ptr noundef null)
  %24 = call noundef ptr @_ZN32pxrInternal_v0_24__pxrReserved__6TfEnum10_NameIdentEPKc(ptr noundef null)
  %25 = getelementptr inbounds nuw { ptr, i32 }, ptr %5, i32 0, i32 0
  %26 = load ptr, ptr %25, align 8
  %27 = getelementptr inbounds nuw { ptr, i32 }, ptr %5, i32 0, i32 1
  %28 = load i32, ptr %27, align 8
  call void @_ZN32pxrInternal_v0_24__pxrReserved__6TfEnum8_AddNameES0_PKcS2_(ptr %26, i32 %28, ptr noundef @.str.26, ptr noundef %24)
  call void @_ZN32pxrInternal_v0_24__pxrReserved__6TfEnumC2INS_17TsTest_SplineData12InterpMethodEEET_PNSt9enable_ifIXsr3std7is_enumIS4_EE5valueEvE4typeE(ptr noundef nonnull align 8 dereferenceable(12) %6, i32 noundef 1, ptr noundef null)
  %29 = call noundef ptr @_ZN32pxrInternal_v0_24__pxrReserved__6TfEnum10_NameIdentEPKc(ptr noundef null)
  %30 = getelementptr inbounds nuw { ptr, i32 }, ptr %6, i32 0, i32 0
  %31 = load ptr, ptr %30, align 8
  %32 = getelementptr inbounds nuw { ptr, i32 }, ptr %6, i32 0, i32 1
  %33 = load i32, ptr %32, align 8
  call void @_ZN32pxrInternal_v0_24__pxrReserved__6TfEnum8_AddNameES0_PKcS2_(ptr %31, i32 %33, ptr noundef @.str.27, ptr noundef %29)
  call void @_ZN32pxrInternal_v0_24__pxrReserved__6TfEnumC2INS_17TsTest_SplineData12InterpMethodEEET_PNSt9enable_ifIXsr3std7is_enumIS4_EE5valueEvE4typeE(ptr noundef nonnull align 8 dereferenceable(12) %7, i32 noundef 2, ptr noundef null)
  %34 = call noundef ptr @_ZN32pxrInternal_v0_24__pxrReserved__6TfEnum10_NameIdentEPKc(ptr noundef null)
  %35 = getelementptr inbounds nuw { ptr, i32 }, ptr %7, i32 0, i32 0
  %36 = load ptr, ptr %35, align 8
  %37 = getelementptr inbounds nuw { ptr, i32 }, ptr %7, i32 0, i32 1
  %38 = load i32, ptr %37, align 8
  call void @_ZN32pxrInternal_v0_24__pxrReserved__6TfEnum8_AddNameES0_PKcS2_(ptr %36, i32 %38, ptr noundef @.str.28, ptr noundef %34)
  call void @_ZN32pxrInternal_v0_24__pxrReserved__6TfEnumC2INS_17TsTest_SplineData12ExtrapMethodEEET_PNSt9enable_ifIXsr3std7is_enumIS4_EE5valueEvE4typeE(ptr noundef nonnull align 8 dereferenceable(12) %8, i32 noundef 0, ptr noundef null)
  %39 = call noundef ptr @_ZN32pxrInternal_v0_24__pxrReserved__6TfEnum10_NameIdentEPKc(ptr noundef null)
  %40 = getelementptr inbounds nuw { ptr, i32 }, ptr %8, i32 0, i32 0
  %41 = load ptr, ptr %40, align 8
  %42 = getelementptr inbounds nuw { ptr, i32 }, ptr %8, i32 0, i32 1
  %43 = load i32, ptr %42, align 8
  call void @_ZN32pxrInternal_v0_24__pxrReserved__6TfEnum8_AddNameES0_PKcS2_(ptr %41, i32 %43, ptr noundef @.str.29, ptr noundef %39)
  call void @_ZN32pxrInternal_v0_24__pxrReserved__6TfEnumC2INS_17TsTest_SplineData12ExtrapMethodEEET_PNSt9enable_ifIXsr3std7is_enumIS4_EE5valueEvE4typeE(ptr noundef nonnull align 8 dereferenceable(12) %9, i32 noundef 1, ptr noundef null)
  %44 = call noundef ptr @_ZN32pxrInternal_v0_24__pxrReserved__6TfEnum10_NameIdentEPKc(ptr noundef null)
  %45 = getelementptr inbounds nuw { ptr, i32 }, ptr %9, i32 0, i32 0
  %46 = load ptr, ptr %45, align 8
  %47 = getelementptr inbounds nuw { ptr, i32 }, ptr %9, i32 0, i32 1
  %48 = load i32, ptr %47, align 8
  call void @_ZN32pxrInternal_v0_24__pxrReserved__6TfEnum8_AddNameES0_PKcS2_(ptr %46, i32 %48, ptr noundef @.str.30, ptr noundef %44)
  call void @_ZN32pxrInternal_v0_24__pxrReserved__6TfEnumC2INS_17TsTest_SplineData12ExtrapMethodEEET_PNSt9enable_ifIXsr3std7is_enumIS4_EE5valueEvE4typeE(ptr noundef nonnull align 8 dereferenceable(12) %10, i32 noundef 2, ptr noundef null)
  %49 = call noundef ptr @_ZN32pxrInternal_v0_24__pxrReserved__6TfEnum10_NameIdentEPKc(ptr noundef null)
  %50 = getelementptr inbounds nuw { ptr, i32 }, ptr %10, i32 0, i32 0
  %51 = load ptr, ptr %50, align 8
  %52 = getelementptr inbounds nuw { ptr, i32 }, ptr %10, i32 0, i32 1
  %53 = load i32, ptr %52, align 8
  call void @_ZN32pxrInternal_v0_24__pxrReserved__6TfEnum8_AddNameES0_PKcS2_(ptr %51, i32 %53, ptr noundef @.str.31, ptr noundef %49)
  call void @_ZN32pxrInternal_v0_24__pxrReserved__6TfEnumC2INS_17TsTest_SplineData12ExtrapMethodEEET_PNSt9enable_ifIXsr3std7is_enumIS4_EE5valueEvE4typeE(ptr noundef nonnull align 8 dereferenceable(12) %11, i32 noundef 3, ptr noundef null)
  %54 = call noundef ptr @_ZN32pxrInternal_v0_24__pxrReserved__6TfEnum10_NameIdentEPKc(ptr noundef null)
  %55 = getelementptr inbounds nuw { ptr, i32 }, ptr %11, i32 0, i32 0
  %56 = load ptr, ptr %55, align 8
  %57 = getelementptr inbounds nuw { ptr, i32 }, ptr %11, i32 0, i32 1
  %58 = load i32, ptr %57, align 8
  call void @_ZN32pxrInternal_v0_24__pxrReserved__6TfEnum8_AddNameES0_PKcS2_(ptr %56, i32 %58, ptr noundef @.str.32, ptr noundef %54)
  call void @_ZN32pxrInternal_v0_24__pxrReserved__6TfEnumC2INS_17TsTest_SplineData8LoopModeEEET_PNSt9enable_ifIXsr3std7is_enumIS4_EE5valueEvE4typeE(ptr noundef nonnull align 8 dereferenceable(12) %12, i32 noundef 0, ptr noundef null)
  %59 = call noundef ptr @_ZN32pxrInternal_v0_24__pxrReserved__6TfEnum10_NameIdentEPKc(ptr noundef null)
  %60 = getelementptr inbounds nuw { ptr, i32 }, ptr %12, i32 0, i32 0
  %61 = load ptr, ptr %60, align 8
  %62 = getelementptr inbounds nuw { ptr, i32 }, ptr %12, i32 0, i32 1
  %63 = load i32, ptr %62, align 8
  call void @_ZN32pxrInternal_v0_24__pxrReserved__6TfEnum8_AddNameES0_PKcS2_(ptr %61, i32 %63, ptr noundef @.str.33, ptr noundef %59)
  call void @_ZN32pxrInternal_v0_24__pxrReserved__6TfEnumC2INS_17TsTest_SplineData8LoopModeEEET_PNSt9enable_ifIXsr3std7is_enumIS4_EE5valueEvE4typeE(ptr noundef nonnull align 8 dereferenceable(12) %13, i32 noundef 1, ptr noundef null)
  %64 = call noundef ptr @_ZN32pxrInternal_v0_24__pxrReserved__6TfEnum10_NameIdentEPKc(ptr noundef null)
  %65 = getelementptr inbounds nuw { ptr, i32 }, ptr %13, i32 0, i32 0
  %66 = load ptr, ptr %65, align 8
  %67 = getelementptr inbounds nuw { ptr, i32 }, ptr %13, i32 0, i32 1
  %68 = load i32, ptr %67, align 8
  call void @_ZN32pxrInternal_v0_24__pxrReserved__6TfEnum8_AddNameES0_PKcS2_(ptr %66, i32 %68, ptr noundef @.str.34, ptr noundef %64)
  call void @_ZN32pxrInternal_v0_24__pxrReserved__6TfEnumC2INS_17TsTest_SplineData8LoopModeEEET_PNSt9enable_ifIXsr3std7is_enumIS4_EE5valueEvE4typeE(ptr noundef nonnull align 8 dereferenceable(12) %14, i32 noundef 2, ptr noundef null)
  %69 = call noundef ptr @_ZN32pxrInternal_v0_24__pxrReserved__6TfEnum10_NameIdentEPKc(ptr noundef null)
  %70 = getelementptr inbounds nuw { ptr, i32 }, ptr %14, i32 0, i32 0
  %71 = load ptr, ptr %70, align 8
  %72 = getelementptr inbounds nuw { ptr, i32 }, ptr %14, i32 0, i32 1
  %73 = load i32, ptr %72, align 8
  call void @_ZN32pxrInternal_v0_24__pxrReserved__6TfEnum8_AddNameES0_PKcS2_(ptr %71, i32 %73, ptr noundef @.str.35, ptr noundef %69)
  call void @_ZN32pxrInternal_v0_24__pxrReserved__6TfEnumC2INS_17TsTest_SplineData8LoopModeEEET_PNSt9enable_ifIXsr3std7is_enumIS4_EE5valueEvE4typeE(ptr noundef nonnull align 8 dereferenceable(12) %15, i32 noundef 3, ptr noundef null)
  %74 = call noundef ptr @_ZN32pxrInternal_v0_24__pxrReserved__6TfEnum10_NameIdentEPKc(ptr noundef null)
  %75 = getelementptr inbounds nuw { ptr, i32 }, ptr %15, i32 0, i32 0
  %76 = load ptr, ptr %75, align 8
  %77 = getelementptr inbounds nuw { ptr, i32 }, ptr %15, i32 0, i32 1
  %78 = load i32, ptr %77, align 8
  call void @_ZN32pxrInternal_v0_24__pxrReserved__6TfEnum8_AddNameES0_PKcS2_(ptr %76, i32 %78, ptr noundef @.str.36, ptr noundef %74)
  call void @_ZN32pxrInternal_v0_24__pxrReserved__6TfEnumC2INS_17TsTest_SplineData8LoopModeEEET_PNSt9enable_ifIXsr3std7is_enumIS4_EE5valueEvE4typeE(ptr noundef nonnull align 8 dereferenceable(12) %16, i32 noundef 4, ptr noundef null)
  %79 = call noundef ptr @_ZN32pxrInternal_v0_24__pxrReserved__6TfEnum10_NameIdentEPKc(ptr noundef null)
  %80 = getelementptr inbounds nuw { ptr, i32 }, ptr %16, i32 0, i32 0
  %81 = load ptr, ptr %80, align 8
  %82 = getelementptr inbounds nuw { ptr, i32 }, ptr %16, i32 0, i32 1
  %83 = load i32, ptr %82, align 8
  call void @_ZN32pxrInternal_v0_24__pxrReserved__6TfEnum8_AddNameES0_PKcS2_(ptr %81, i32 %83, ptr noundef @.str.37, ptr noundef %79)
  call void @_ZN32pxrInternal_v0_24__pxrReserved__6TfEnumC2INS_17TsTest_SplineData7FeatureEEET_PNSt9enable_ifIXsr3std7is_enumIS4_EE5valueEvE4typeE(ptr noundef nonnull align 8 dereferenceable(12) %17, i32 noundef 1, ptr noundef null)
  %84 = call noundef ptr @_ZN32pxrInternal_v0_24__pxrReserved__6TfEnum10_NameIdentEPKc(ptr noundef null)
  %85 = getelementptr inbounds nuw { ptr, i32 }, ptr %17, i32 0, i32 0
  %86 = load ptr, ptr %85, align 8
  %87 = getelementptr inbounds nuw { ptr, i32 }, ptr %17, i32 0, i32 1
  %88 = load i32, ptr %87, align 8
  call void @_ZN32pxrInternal_v0_24__pxrReserved__6TfEnum8_AddNameES0_PKcS2_(ptr %86, i32 %88, ptr noundef @.str.38, ptr noundef %84)
  call void @_ZN32pxrInternal_v0_24__pxrReserved__6TfEnumC2INS_17TsTest_SplineData7FeatureEEET_PNSt9enable_ifIXsr3std7is_enumIS4_EE5valueEvE4typeE(ptr noundef nonnull align 8 dereferenceable(12) %18, i32 noundef 2, ptr noundef null)
  %89 = call noundef ptr @_ZN32pxrInternal_v0_24__pxrReserved__6TfEnum10_NameIdentEPKc(ptr noundef null)
  %90 = getelementptr inbounds nuw { ptr, i32 }, ptr %18, i32 0, i32 0
  %91 = load ptr, ptr %90, align 8
  %92 = getelementptr inbounds nuw { ptr, i32 }, ptr %18, i32 0, i32 1
  %93 = load i32, ptr %92, align 8
  call void @_ZN32pxrInternal_v0_24__pxrReserved__6TfEnum8_AddNameES0_PKcS2_(ptr %91, i32 %93, ptr noundef @.str.39, ptr noundef %89)
  call void @_ZN32pxrInternal_v0_24__pxrReserved__6TfEnumC2INS_17TsTest_SplineData7FeatureEEET_PNSt9enable_ifIXsr3std7is_enumIS4_EE5valueEvE4typeE(ptr noundef nonnull align 8 dereferenceable(12) %19, i32 noundef 4, ptr noundef null)
  %94 = call noundef ptr @_ZN32pxrInternal_v0_24__pxrReserved__6TfEnum10_NameIdentEPKc(ptr noundef null)
  %95 = getelementptr inbounds nuw { ptr, i32 }, ptr %19, i32 0, i32 0
  %96 = load ptr, ptr %95, align 8
  %97 = getelementptr inbounds nuw { ptr, i32 }, ptr %19, i32 0, i32 1
  %98 = load i32, ptr %97, align 8
  call void @_ZN32pxrInternal_v0_24__pxrReserved__6TfEnum8_AddNameES0_PKcS2_(ptr %96, i32 %98, ptr noundef @.str.40, ptr noundef %94)
  call void @_ZN32pxrInternal_v0_24__pxrReserved__6TfEnumC2INS_17TsTest_SplineData7FeatureEEET_PNSt9enable_ifIXsr3std7is_enumIS4_EE5valueEvE4typeE(ptr noundef nonnull align 8 dereferenceable(12) %20, i32 noundef 8, ptr noundef null)
  %99 = call noundef ptr @_ZN32pxrInternal_v0_24__pxrReserved__6TfEnum10_NameIdentEPKc(ptr noundef null)
  %100 = getelementptr inbounds nuw { ptr, i32 }, ptr %20, i32 0, i32 0
  %101 = load ptr, ptr %100, align 8
  %102 = getelementptr inbounds nuw { ptr, i32 }, ptr %20, i32 0, i32 1
  %103 = load i32, ptr %102, align 8
  call void @_ZN32pxrInternal_v0_24__pxrReserved__6TfEnum8_AddNameES0_PKcS2_(ptr %101, i32 %103, ptr noundef @.str.41, ptr noundef %99)
  call void @_ZN32pxrInternal_v0_24__pxrReserved__6TfEnumC2INS_17TsTest_SplineData7FeatureEEET_PNSt9enable_ifIXsr3std7is_enumIS4_EE5valueEvE4typeE(ptr noundef nonnull align 8 dereferenceable(12) %21, i32 noundef 32, ptr noundef null)
  %104 = call noundef ptr @_ZN32pxrInternal_v0_24__pxrReserved__6TfEnum10_NameIdentEPKc(ptr noundef null)
  %105 = getelementptr inbounds nuw { ptr, i32 }, ptr %21, i32 0, i32 0
  %106 = load ptr, ptr %105, align 8
  %107 = getelementptr inbounds nuw { ptr, i32 }, ptr %21, i32 0, i32 1
  %108 = load i32, ptr %107, align 8
  call void @_ZN32pxrInternal_v0_24__pxrReserved__6TfEnum8_AddNameES0_PKcS2_(ptr %106, i32 %108, ptr noundef @.str.42, ptr noundef %104)
  call void @_ZN32pxrInternal_v0_24__pxrReserved__6TfEnumC2INS_17TsTest_SplineData7FeatureEEET_PNSt9enable_ifIXsr3std7is_enumIS4_EE5valueEvE4typeE(ptr noundef nonnull align 8 dereferenceable(12) %22, i32 noundef 64, ptr noundef null)
  %109 = call noundef ptr @_ZN32pxrInternal_v0_24__pxrReserved__6TfEnum10_NameIdentEPKc(ptr noundef null)
  %110 = getelementptr inbounds nuw { ptr, i32 }, ptr %22, i32 0, i32 0
  %111 = load ptr, ptr %110, align 8
  %112 = getelementptr inbounds nuw { ptr, i32 }, ptr %22, i32 0, i32 1
  %113 = load i32, ptr %112, align 8
  call void @_ZN32pxrInternal_v0_24__pxrReserved__6TfEnum8_AddNameES0_PKcS2_(ptr %111, i32 %113, ptr noundef @.str.43, ptr noundef %109)
  call void @_ZN32pxrInternal_v0_24__pxrReserved__6TfEnumC2INS_17TsTest_SplineData7FeatureEEET_PNSt9enable_ifIXsr3std7is_enumIS4_EE5valueEvE4typeE(ptr noundef nonnull align 8 dereferenceable(12) %23, i32 noundef 128, ptr noundef null)
  %114 = call noundef ptr @_ZN32pxrInternal_v0_24__pxrReserved__6TfEnum10_NameIdentEPKc(ptr noundef null)
  %115 = getelementptr inbounds nuw { ptr, i32 }, ptr %23, i32 0, i32 0
  %116 = load ptr, ptr %115, align 8
  %117 = getelementptr inbounds nuw { ptr, i32 }, ptr %23, i32 0, i32 1
  %118 = load i32, ptr %117, align 8
  call void @_ZN32pxrInternal_v0_24__pxrReserved__6TfEnum8_AddNameES0_PKcS2_(ptr %116, i32 %118, ptr noundef @.str.44, ptr noundef %114)
  ret void
}