; Function Attrs: mustprogress uwtable
define internal void @_ZN32pxrInternal_v0_24__pxrReserved__L22_Tf_RegistryFunction22EPNS_6TfEnumEPv(ptr nocapture readnone %0, ptr nocapture readnone %1) #0 {
  tail call void @_ZN32pxrInternal_v0_24__pxrReserved__6TfEnum8_AddNameES0_PKcS2_(ptr nonnull @_ZTIN32pxrInternal_v0_24__pxrReserved__17TsTest_SplineData12InterpMethodE, i32 0, ptr noundef nonnull @.str.26, ptr noundef null)
  tail call void @_ZN32pxrInternal_v0_24__pxrReserved__6TfEnum8_AddNameES0_PKcS2_(ptr nonnull @_ZTIN32pxrInternal_v0_24__pxrReserved__17TsTest_SplineData12InterpMethodE, i32 1, ptr noundef nonnull @.str.27, ptr noundef null)
  tail call void @_ZN32pxrInternal_v0_24__pxrReserved__6TfEnum8_AddNameES0_PKcS2_(ptr nonnull @_ZTIN32pxrInternal_v0_24__pxrReserved__17TsTest_SplineData12InterpMethodE, i32 2, ptr noundef nonnull @.str.28, ptr noundef null)
  tail call void @_ZN32pxrInternal_v0_24__pxrReserved__6TfEnum8_AddNameES0_PKcS2_(ptr nonnull @_ZTIN32pxrInternal_v0_24__pxrReserved__17TsTest_SplineData12ExtrapMethodE, i32 0, ptr noundef nonnull @.str.29, ptr noundef null)
  tail call void @_ZN32pxrInternal_v0_24__pxrReserved__6TfEnum8_AddNameES0_PKcS2_(ptr nonnull @_ZTIN32pxrInternal_v0_24__pxrReserved__17TsTest_SplineData12ExtrapMethodE, i32 1, ptr noundef nonnull @.str.30, ptr noundef null)
  tail call void @_ZN32pxrInternal_v0_24__pxrReserved__6TfEnum8_AddNameES0_PKcS2_(ptr nonnull @_ZTIN32pxrInternal_v0_24__pxrReserved__17TsTest_SplineData12ExtrapMethodE, i32 2, ptr noundef nonnull @.str.31, ptr noundef null)
  tail call void @_ZN32pxrInternal_v0_24__pxrReserved__6TfEnum8_AddNameES0_PKcS2_(ptr nonnull @_ZTIN32pxrInternal_v0_24__pxrReserved__17TsTest_SplineData12ExtrapMethodE, i32 3, ptr noundef nonnull @.str.32, ptr noundef null)
  tail call void @_ZN32pxrInternal_v0_24__pxrReserved__6TfEnum8_AddNameES0_PKcS2_(ptr nonnull @_ZTIN32pxrInternal_v0_24__pxrReserved__17TsTest_SplineData8LoopModeE, i32 0, ptr noundef nonnull @.str.33, ptr noundef null)
  tail call void @_ZN32pxrInternal_v0_24__pxrReserved__6TfEnum8_AddNameES0_PKcS2_(ptr nonnull @_ZTIN32pxrInternal_v0_24__pxrReserved__17TsTest_SplineData8LoopModeE, i32 1, ptr noundef nonnull @.str.34, ptr noundef null)
  tail call void @_ZN32pxrInternal_v0_24__pxrReserved__6TfEnum8_AddNameES0_PKcS2_(ptr nonnull @_ZTIN32pxrInternal_v0_24__pxrReserved__17TsTest_SplineData8LoopModeE, i32 2, ptr noundef nonnull @.str.35, ptr noundef null)
  tail call void @_ZN32pxrInternal_v0_24__pxrReserved__6TfEnum8_AddNameES0_PKcS2_(ptr nonnull @_ZTIN32pxrInternal_v0_24__pxrReserved__17TsTest_SplineData8LoopModeE, i32 3, ptr noundef nonnull @.str.36, ptr noundef null)
  tail call void @_ZN32pxrInternal_v0_24__pxrReserved__6TfEnum8_AddNameES0_PKcS2_(ptr nonnull @_ZTIN32pxrInternal_v0_24__pxrReserved__17TsTest_SplineData8LoopModeE, i32 4, ptr noundef nonnull @.str.37, ptr noundef null)
  tail call void @_ZN32pxrInternal_v0_24__pxrReserved__6TfEnum8_AddNameES0_PKcS2_(ptr nonnull @_ZTIN32pxrInternal_v0_24__pxrReserved__17TsTest_SplineData7FeatureE, i32 1, ptr noundef nonnull @.str.38, ptr noundef null)
  tail call void @_ZN32pxrInternal_v0_24__pxrReserved__6TfEnum8_AddNameES0_PKcS2_(ptr nonnull @_ZTIN32pxrInternal_v0_24__pxrReserved__17TsTest_SplineData7FeatureE, i32 2, ptr noundef nonnull @.str.39, ptr noundef null)
  tail call void @_ZN32pxrInternal_v0_24__pxrReserved__6TfEnum8_AddNameES0_PKcS2_(ptr nonnull @_ZTIN32pxrInternal_v0_24__pxrReserved__17TsTest_SplineData7FeatureE, i32 4, ptr noundef nonnull @.str.40, ptr noundef null)
  tail call void @_ZN32pxrInternal_v0_24__pxrReserved__6TfEnum8_AddNameES0_PKcS2_(ptr nonnull @_ZTIN32pxrInternal_v0_24__pxrReserved__17TsTest_SplineData7FeatureE, i32 8, ptr noundef nonnull @.str.41, ptr noundef null)
  tail call void @_ZN32pxrInternal_v0_24__pxrReserved__6TfEnum8_AddNameES0_PKcS2_(ptr nonnull @_ZTIN32pxrInternal_v0_24__pxrReserved__17TsTest_SplineData7FeatureE, i32 32, ptr noundef nonnull @.str.42, ptr noundef null)
  tail call void @_ZN32pxrInternal_v0_24__pxrReserved__6TfEnum8_AddNameES0_PKcS2_(ptr nonnull @_ZTIN32pxrInternal_v0_24__pxrReserved__17TsTest_SplineData7FeatureE, i32 64, ptr noundef nonnull @.str.43, ptr noundef null)
  tail call void @_ZN32pxrInternal_v0_24__pxrReserved__6TfEnum8_AddNameES0_PKcS2_(ptr nonnull @_ZTIN32pxrInternal_v0_24__pxrReserved__17TsTest_SplineData7FeatureE, i32 128, ptr noundef nonnull @.str.44, ptr noundef null)
  ret void
}